target datalayout = "e-m:e-p270:32:32-p271:32:32-p272:64:64-i64:64-i128:128-f80:128-n8:16:32:64-S128"
target triple = "x86_64-unknown-linux-gnu"

%"class.llvh::ArrayRef" = type { ptr, i64 }
%"class.hermes::vm::CallResult" = type { i32, %"class.hermes::vm::HermesValue" }
%"class.hermes::vm::HermesValue" = type { i64 }

; Function Attrs: mustprogress nounwind uwtable
define linkonce_odr hidden noundef zeroext i1 @_ZN6hermes7isASCIIIDsEEbT_(i16 noundef zeroext %c) #0 comdat {
entry:
  %c.addr = alloca i16, align 2
  %asciiMask = alloca i32, align 4
  store i16 %c, ptr %c.addr, align 2
  store i32 127, ptr %asciiMask, align 4
  %0 = load i16, ptr %c.addr, align 2
  %conv = zext i16 %0 to i32
  %and = and i32 %conv, 65408
  %cmp = icmp eq i32 %and, 0
  ret i1 %cmp
}

; Function Attrs: mustprogress nounwind uwtable
define linkonce_odr hidden noundef zeroext i1 @_ZN6hermes10isAllASCIIIPKDsEEbT_S3_(ptr noundef %begin, ptr noundef %end) #0 comdat {
entry:
  %retval = alloca i1, align 1
  %begin.addr = alloca ptr, align 8
  %end.addr = alloca ptr, align 8
  store ptr %begin, ptr %begin.addr, align 8
  store ptr %end, ptr %end.addr, align 8
  br label %while.cond

while.cond:                                       ; preds = %if.end, %entry
  %0 = load ptr, ptr %begin.addr, align 8
  %1 = load ptr, ptr %end.addr, align 8
  %cmp = icmp ult ptr %0, %1
  br i1 %cmp, label %while.body, label %while.end

while.body:                                       ; preds = %while.cond
  %2 = load ptr, ptr %begin.addr, align 8
  %3 = load i16, ptr %2, align 2
  %call = call noundef zeroext i1 @_ZN6hermes7isASCIIIDsEEbT_(i16 noundef zeroext %3)
  br i1 %call, label %if.end, label %if.then

if.then:                                          ; preds = %while.body
  store i1 false, ptr %retval, align 1
  br label %return

if.end:                                           ; preds = %while.body
  %4 = load ptr, ptr %begin.addr, align 8
  %incdec.ptr = getelementptr inbounds i16, ptr %4, i32 1
  store ptr %incdec.ptr, ptr %begin.addr, align 8
  br label %while.cond, !llvm.loop !4

while.end:                                        ; preds = %while.cond
  store i1 true, ptr %retval, align 1
  br label %return

return:                                           ; preds = %while.end, %if.then
  %5 = load i1, ptr %retval, align 1
  ret i1 %5
}

; Function Attrs: mustprogress nounwind uwtable
define linkonce_odr hidden noundef ptr @_ZNK4llvh8ArrayRefIDsE3endEv(ptr noundef nonnull align 8 dereferenceable(16) %this) #0 comdat align 2 {
entry:
  %this.addr = alloca ptr, align 8
  store ptr %this, ptr %this.addr, align 8
  %this1 = load ptr, ptr %this.addr, align 8
  %Data = getelementptr inbounds %"class.llvh::ArrayRef", ptr %this1, i32 0, i32 0
  %0 = load ptr, ptr %Data, align 8
  %Length = getelementptr inbounds %"class.llvh::ArrayRef", ptr %this1, i32 0, i32 1
  %1 = load i64, ptr %Length, align 8
  %add.ptr = getelementptr inbounds i16, ptr %0, i64 %1
  ret ptr %add.ptr
}

; Function Attrs: mustprogress nounwind uwtable
define linkonce_odr hidden noundef ptr @_ZNK4llvh8ArrayRefIDsE5beginEv(ptr noundef nonnull align 8 dereferenceable(16) %this) #0 comdat align 2 {
entry:
  %this.addr = alloca ptr, align 8
  store ptr %this, ptr %this.addr, align 8
  %this1 = load ptr, ptr %this.addr, align 8
  %Data = getelementptr inbounds %"class.llvh::ArrayRef", ptr %this1, i32 0, i32 0
  %0 = load ptr, ptr %Data, align 8
  ret ptr %0
}

; Function Attrs: mustprogress nounwind uwtable
define hidden { i32, i64 } @_ZN6hermes2vm15StringPrimitive13createDynamicERNS0_7RuntimeEN4llvh8ArrayRefIDsEE(ptr noundef nonnull align 8 dereferenceable(9832) %runtime, ptr %str.coerce0, i64 %str.coerce1) #0 align 2 {
entry:
  %retval = alloca %"class.hermes::vm::CallResult", align 8
  %str = alloca %"class.llvh::ArrayRef", align 8
  %runtime.addr = alloca ptr, align 8
  %agg.tmp = alloca %"class.llvh::ArrayRef", align 8
  %0 = getelementptr inbounds { ptr, i64 }, ptr %str, i32 0, i32 0
  store ptr %str.coerce0, ptr %0, align 8
  %1 = getelementptr inbounds { ptr, i64 }, ptr %str, i32 0, i32 1
  store i64 %str.coerce1, ptr %1, align 8
  store ptr %runtime, ptr %runtime.addr, align 8
  %2 = load ptr, ptr %runtime.addr, align 8
  call void @llvm.memcpy.p0.p0.i64(ptr align 8 %agg.tmp, ptr align 8 %str, i64 16, i1 false)
  %call = call noundef ptr @_ZNK4llvh8ArrayRefIDsE5beginEv(ptr noundef nonnull align 8 dereferenceable(16) %str)
  %call1 = call noundef ptr @_ZNK4llvh8ArrayRefIDsE3endEv(ptr noundef nonnull align 8 dereferenceable(16) %str)
  %call2 = call noundef zeroext i1 @_ZN6hermes10isAllASCIIIPKDsEEbT_S3_(ptr noundef %call, ptr noundef %call1)
  %3 = getelementptr inbounds { ptr, i64 }, ptr %agg.tmp, i32 0, i32 0
  %4 = load ptr, ptr %3, align 8
  %5 = getelementptr inbounds { ptr, i64 }, ptr %agg.tmp, i32 0, i32 1
  %6 = load i64, ptr %5, align 8
  %call3 = call { i32, i64 } @_ZN6hermes2vm15StringPrimitive30createDynamicWithKnownEncodingERNS0_7RuntimeEN4llvh8ArrayRefIDsEEb(ptr noundef nonnull align 8 dereferenceable(9832) %2, ptr %4, i64 %6, i1 noundef zeroext %call2)
  %7 = getelementptr inbounds { i32, i64 }, ptr %retval, i32 0, i32 0
  %8 = extractvalue { i32, i64 } %call3, 0
  store i32 %8, ptr %7, align 8
  %9 = getelementptr inbounds { i32, i64 }, ptr %retval, i32 0, i32 1
  %10 = extractvalue { i32, i64 } %call3, 1
  store i64 %10, ptr %9, align 8
  %11 = load { i32, i64 }, ptr %retval, align 8
  ret { i32, i64 } %11
}