; Function Attrs: mustprogress nounwind uwtable
define hidden { i32, i64 } @_ZN6hermes2vm15StringPrimitive13createDynamicERNS0_7RuntimeEN4llvh8ArrayRefIDsEE(ptr noundef nonnull align 8 dereferenceable(9832) %runtime, ptr %str.coerce0, i64 %str.coerce1) local_unnamed_addr #0 align 2 {
entry:
  %add.ptr.i = getelementptr inbounds i16, ptr %str.coerce0, i64 %str.coerce1
  %cmp3.not.i = icmp sgt i64 %str.coerce1, 0
  br i1 %cmp3.not.i, label %while.body.i, label %_ZN6hermes10isAllASCIIIPKDsEEbT_S3_.exit

while.body.i:                                     ; preds = %entry, %while.body.i
  %begin.addr.04.i = phi ptr [ %incdec.ptr.i, %while.body.i ], [ %str.coerce0, %entry ]
  %0 = load i16, ptr %begin.addr.04.i, align 2
  %cmp.i.i = icmp ult i16 %0, 128
  %incdec.ptr.i = getelementptr inbounds nuw i8, ptr %begin.addr.04.i, i64 2
  %cmp.not.i = icmp ult ptr %incdec.ptr.i, %add.ptr.i
  %or.cond = select i1 %cmp.i.i, i1 %cmp.not.i, i1 false
  br i1 %or.cond, label %while.body.i, label %_ZN6hermes10isAllASCIIIPKDsEEbT_S3_.exit, !llvm.loop !4

_ZN6hermes10isAllASCIIIPKDsEEbT_S3_.exit:         ; preds = %while.body.i, %entry
  %cmp.lcssa.i = phi i1 [ true, %entry ], [ %cmp.i.i, %while.body.i ]
  %call3 = tail call { i32, i64 } @_ZN6hermes2vm15StringPrimitive30createDynamicWithKnownEncodingERNS0_7RuntimeEN4llvh8ArrayRefIDsEEb(ptr noundef nonnull align 8 dereferenceable(9832) %runtime, ptr %str.coerce0, i64 %str.coerce1, i1 noundef zeroext %cmp.lcssa.i)
  ret { i32, i64 } %call3
}